target datalayout = "e-m:e-p270:32:32-p271:32:32-p272:64:64-i64:64-i128:128-f80:128-n8:16:32:64-S128"
target triple = "x86_64-pc-linux-gnu"

%"class.LightGBM::DatasetLoader" = type <{ ptr, %"class.LightGBM::Random", [4 x i8], %"class.std::function", i32, i32, i32, i32, %"class.std::unordered_set", %"class.std::vector", %"class.std::unordered_set", i8, [7 x i8] }>
%"class.LightGBM::Random" = type { i32 }
%"class.std::function" = type { %"class.std::_Function_base", ptr }
%"class.std::_Function_base" = type { %"union.std::_Any_data", ptr }
%"union.std::_Any_data" = type { %"union.std::_Nocopy_types" }
%"union.std::_Nocopy_types" = type { { i64, i64 } }
%"class.std::vector" = type { %"struct.std::_Vector_base" }
%"struct.std::_Vector_base" = type { %"struct.std::_Vector_base<std::__cxx11::basic_string<char>, std::allocator<std::__cxx11::basic_string<char>>>::_Vector_impl" }
%"struct.std::_Vector_base<std::__cxx11::basic_string<char>, std::allocator<std::__cxx11::basic_string<char>>>::_Vector_impl" = type { %"struct.std::_Vector_base<std::__cxx11::basic_string<char>, std::allocator<std::__cxx11::basic_string<char>>>::_Vector_impl_data" }
%"struct.std::_Vector_base<std::__cxx11::basic_string<char>, std::allocator<std::__cxx11::basic_string<char>>>::_Vector_impl_data" = type { ptr, ptr, ptr }
%"class.std::unordered_set" = type { %"class.std::_Hashtable" }
%"class.std::_Hashtable" = type { ptr, i64, %"struct.std::__detail::_Hash_node_base", i64, %"struct.std::__detail::_Prime_rehash_policy", ptr }
%"struct.std::__detail::_Hash_node_base" = type { ptr }
%"struct.std::__detail::_Prime_rehash_policy" = type { float, i64 }
%class.anon.263 = type { ptr, i32, i32 }

; Function Attrs: inlinehint mustprogress nounwind uwtable
define linkonce_odr noundef i32 @_ZN8LightGBM6Random9RandInt16Ev(ptr noundef nonnull align 4 dereferenceable(4) %0) #6 comdat align 2 {
  %2 = alloca ptr, align 8
  store ptr %0, ptr %2, align 8, !tbaa !75
  %3 = load ptr, ptr %2, align 8
  %4 = getelementptr inbounds nuw %"class.LightGBM::Random", ptr %3, i32 0, i32 0
  %5 = load i32, ptr %4, align 4, !tbaa !77
  %6 = mul i32 214013, %5
  %7 = add i32 %6, 2531011
  %8 = getelementptr inbounds nuw %"class.LightGBM::Random", ptr %3, i32 0, i32 0
  store i32 %7, ptr %8, align 4, !tbaa !77
  %9 = getelementptr inbounds nuw %"class.LightGBM::Random", ptr %3, i32 0, i32 0
  %10 = load i32, ptr %9, align 4, !tbaa !77
  %11 = lshr i32 %10, 16
  %12 = and i32 %11, 32767
  ret i32 %12
}

; Function Attrs: inlinehint mustprogress uwtable
define linkonce_odr noundef i32 @_ZN8LightGBM6Random9NextShortEii(ptr noundef nonnull align 4 dereferenceable(4) %0, i32 noundef %1, i32 noundef %2) #12 comdat align 2 {
  %4 = alloca ptr, align 8
  %5 = alloca i32, align 4
  %6 = alloca i32, align 4
  store ptr %0, ptr %4, align 8, !tbaa !75
  store i32 %1, ptr %5, align 4, !tbaa !13
  store i32 %2, ptr %6, align 4, !tbaa !13
  %7 = load ptr, ptr %4, align 8
  %8 = call noundef i32 @_ZN8LightGBM6Random9RandInt16Ev(ptr noundef nonnull align 4 dereferenceable(4) %7)
  %9 = load i32, ptr %6, align 4, !tbaa !13
  %10 = load i32, ptr %5, align 4, !tbaa !13
  %11 = sub nsw i32 %9, %10
  %12 = srem i32 %8, %11
  %13 = load i32, ptr %5, align 4, !tbaa !13
  %14 = add nsw i32 %12, %13
  ret i32 %14
}

; Function Attrs: inlinehint mustprogress uwtable
define internal noundef zeroext i1 @"_ZZN8LightGBM13DatasetLoader22SampleTextDataFromFileB5cxx11EPKcRKNS_8MetadataEiiPiPSt6vectorIiSaIiEEENK3$_0clEi"(ptr noundef nonnull align 8 dereferenceable(16) %0, i32 noundef %1) #12 align 2 {
  %3 = alloca i1, align 1
  %4 = alloca ptr, align 8
  %5 = alloca i32, align 4
  store ptr %0, ptr %4, align 8, !tbaa !290
  store i32 %1, ptr %5, align 4, !tbaa !13
  %6 = load ptr, ptr %4, align 8
  %7 = getelementptr inbounds nuw %class.anon.263, ptr %6, i32 0, i32 0
  %8 = load ptr, ptr %7, align 8, !tbaa !585
  %9 = getelementptr inbounds nuw %"class.LightGBM::DatasetLoader", ptr %8, i32 0, i32 1
  %10 = getelementptr inbounds nuw %class.anon.263, ptr %6, i32 0, i32 2
  %11 = load i32, ptr %10, align 4, !tbaa !588
  %12 = call noundef i32 @_ZN8LightGBM6Random9NextShortEii(ptr noundef nonnull align 4 dereferenceable(4) %9, i32 noundef 0, i32 noundef %11)
  %13 = getelementptr inbounds nuw %class.anon.263, ptr %6, i32 0, i32 1
  %14 = load i32, ptr %13, align 8, !tbaa !587
  %15 = icmp eq i32 %12, %14
  br i1 %15, label %16, label %17

16:                                               ; preds = %2
  store i1 true, ptr %3, align 1
  br label %18

17:                                               ; preds = %2
  store i1 false, ptr %3, align 1
  br label %18

18:                                               ; preds = %17, %16
  %19 = load i1, ptr %3, align 1
  ret i1 %19
}

; Function Attrs: mustprogress nounwind uwtable
define linkonce_odr noundef ptr @_ZNKSt9_Any_data9_M_accessEv(ptr noundef nonnull align 8 dereferenceable(16) %0) #5 comdat align 2 {
  %2 = alloca ptr, align 8
  store ptr %0, ptr %2, align 8, !tbaa !373
  %3 = load ptr, ptr %2, align 8
  %4 = getelementptr inbounds [16 x i8], ptr %3, i64 0, i64 0
  ret ptr %4
}

; Function Attrs: mustprogress uwtable
define internal noundef zeroext i1 @"_ZSt13__invoke_implIbRZN8LightGBM13DatasetLoader22SampleTextDataFromFileB5cxx11EPKcRKNS0_8MetadataEiiPiPSt6vectorIiSaIiEEE3$_0JiEET_St14__invoke_otherOT0_DpOT1_"(ptr noundef nonnull align 8 dereferenceable(16) %0, ptr noundef nonnull align 4 dereferenceable(4) %1) #4 {
  %3 = alloca ptr, align 8
  %4 = alloca ptr, align 8
  store ptr %0, ptr %3, align 8, !tbaa !290
  store ptr %1, ptr %4, align 8, !tbaa !133
  %5 = load ptr, ptr %3, align 8, !tbaa !290
  %6 = load ptr, ptr %4, align 8, !tbaa !133
  %7 = load i32, ptr %6, align 4, !tbaa !13
  %8 = call noundef zeroext i1 @"_ZZN8LightGBM13DatasetLoader22SampleTextDataFromFileB5cxx11EPKcRKNS_8MetadataEiiPiPSt6vectorIiSaIiEEENK3$_0clEi"(ptr noundef nonnull align 8 dereferenceable(16) %5, i32 noundef %7)
  ret i1 %8
}

; Function Attrs: mustprogress nounwind uwtable
define internal noundef nonnull align 8 dereferenceable(16) ptr @"_ZNKSt9_Any_data9_M_accessIZN8LightGBM13DatasetLoader22SampleTextDataFromFileB5cxx11EPKcRKNS1_8MetadataEiiPiPSt6vectorIiSaIiEEE3$_0EERKT_v"(ptr noundef nonnull align 8 dereferenceable(16) %0) #5 align 2 {
  %2 = alloca ptr, align 8
  store ptr %0, ptr %2, align 8, !tbaa !373
  %3 = load ptr, ptr %2, align 8
  %4 = call noundef ptr @_ZNKSt9_Any_data9_M_accessEv(ptr noundef nonnull align 8 dereferenceable(16) %3) #3
  ret ptr %4
}

; Function Attrs: mustprogress uwtable
define internal noundef zeroext i1 @"_ZSt10__invoke_rIbRZN8LightGBM13DatasetLoader22SampleTextDataFromFileB5cxx11EPKcRKNS0_8MetadataEiiPiPSt6vectorIiSaIiEEE3$_0JiEENSt9enable_ifIXsr6__and_ISt6__not_ISt7is_voidIT_EESt14is_convertibleINSt15__invoke_resultIT0_JDpT1_EE4typeESH_EEE5valueESH_E4typeEOSM_DpOSN_"(ptr noundef nonnull align 8 dereferenceable(16) %0, ptr noundef nonnull align 4 dereferenceable(4) %1) #4 {
  %3 = alloca ptr, align 8
  %4 = alloca ptr, align 8
  store ptr %0, ptr %3, align 8, !tbaa !290
  store ptr %1, ptr %4, align 8, !tbaa !133
  %5 = load ptr, ptr %3, align 8, !tbaa !290
  %6 = load ptr, ptr %4, align 8, !tbaa !133
  %7 = call noundef zeroext i1 @"_ZSt13__invoke_implIbRZN8LightGBM13DatasetLoader22SampleTextDataFromFileB5cxx11EPKcRKNS0_8MetadataEiiPiPSt6vectorIiSaIiEEE3$_0JiEET_St14__invoke_otherOT0_DpOT1_"(ptr noundef nonnull align 8 dereferenceable(16) %5, ptr noundef nonnull align 4 dereferenceable(4) %6)
  ret i1 %7
}

; Function Attrs: mustprogress nounwind uwtable
define internal noundef ptr @"_ZNSt14_Function_base13_Base_managerIZN8LightGBM13DatasetLoader22SampleTextDataFromFileB5cxx11EPKcRKNS1_8MetadataEiiPiPSt6vectorIiSaIiEEE3$_0E14_M_get_pointerERKSt9_Any_data"(ptr noundef nonnull align 8 dereferenceable(16) %0) #5 align 2 {
  %2 = alloca ptr, align 8
  %3 = alloca ptr, align 8
  store ptr %0, ptr %2, align 8, !tbaa !373
  call void @llvm.lifetime.start.p0(i64 8, ptr %3) #3
  %4 = load ptr, ptr %2, align 8, !tbaa !373
  %5 = call noundef nonnull align 8 dereferenceable(16) ptr @"_ZNKSt9_Any_data9_M_accessIZN8LightGBM13DatasetLoader22SampleTextDataFromFileB5cxx11EPKcRKNS1_8MetadataEiiPiPSt6vectorIiSaIiEEE3$_0EERKT_v"(ptr noundef nonnull align 8 dereferenceable(16) %4) #3
  store ptr %5, ptr %3, align 8, !tbaa !290
  %6 = load ptr, ptr %3, align 8, !tbaa !290
  call void @llvm.lifetime.end.p0(i64 8, ptr %3) #3
  ret ptr %6
}

; Function Attrs: mustprogress uwtable
define internal noundef zeroext i1 @"_ZNSt17_Function_handlerIFbiEZN8LightGBM13DatasetLoader22SampleTextDataFromFileB5cxx11EPKcRKNS1_8MetadataEiiPiPSt6vectorIiSaIiEEE3$_0E9_M_invokeERKSt9_Any_dataOi"(ptr noundef nonnull align 8 dereferenceable(16) %0, ptr noundef nonnull align 4 dereferenceable(4) %1) #4 align 2 {
  %3 = alloca ptr, align 8
  %4 = alloca ptr, align 8
  store ptr %0, ptr %3, align 8, !tbaa !373
  store ptr %1, ptr %4, align 8, !tbaa !133
  %5 = load ptr, ptr %3, align 8, !tbaa !373
  %6 = call noundef ptr @"_ZNSt14_Function_base13_Base_managerIZN8LightGBM13DatasetLoader22SampleTextDataFromFileB5cxx11EPKcRKNS1_8MetadataEiiPiPSt6vectorIiSaIiEEE3$_0E14_M_get_pointerERKSt9_Any_data"(ptr noundef nonnull align 8 dereferenceable(16) %5) #3
  %7 = load ptr, ptr %4, align 8, !tbaa !133
  %8 = call noundef zeroext i1 @"_ZSt10__invoke_rIbRZN8LightGBM13DatasetLoader22SampleTextDataFromFileB5cxx11EPKcRKNS0_8MetadataEiiPiPSt6vectorIiSaIiEEE3$_0JiEENSt9enable_ifIXsr6__and_ISt6__not_ISt7is_voidIT_EESt14is_convertibleINSt15__invoke_resultIT0_JDpT1_EE4typeESH_EEE5valueESH_E4typeEOSM_DpOSN_"(ptr noundef nonnull align 8 dereferenceable(16) %6, ptr noundef nonnull align 4 dereferenceable(4) %7)
  ret i1 %8
}